target datalayout = "e-m:e-p270:32:32-p271:32:32-p272:64:64-i64:64-i128:128-f80:128-n8:16:32:64-S128"
target triple = "x86_64-pc-linux-gnu"

@_ZN15MetaspaceShared19_remapped_readwriteE = hidden global i8 0, align 1
@_ZN11FileMapInfo21_dynamic_archive_infoE = external global ptr, align 8
@_ZN11FileMapInfo13_current_infoE = external global ptr, align 8

; Function Attrs: mustprogress nounwind uwtable
define linkonce_odr hidden noundef ptr @_ZN11FileMapInfo12dynamic_infoEv() #1 comdat align 2 {
  %1 = load ptr, ptr @_ZN11FileMapInfo21_dynamic_archive_infoE, align 8
  ret ptr %1
}

; Function Attrs: mustprogress nounwind uwtable
define linkonce_odr hidden noundef ptr @_ZN11FileMapInfo12current_infoEv() #1 comdat align 2 {
  %1 = load ptr, ptr @_ZN11FileMapInfo13_current_infoE, align 8
  ret ptr %1
}

; Function Attrs: mustprogress nounwind uwtable
define hidden noundef zeroext i1 @_ZN15MetaspaceShared34remap_shared_readonly_as_readwriteEv() #1 align 2 {
  %1 = alloca i1, align 1
  %2 = alloca ptr, align 8
  %3 = call noundef zeroext i1 @_ZN9CDSConfig16is_using_archiveEv()
  br i1 %3, label %4, label %19

4:                                                ; preds = %0
  %5 = call noundef ptr @_ZN11FileMapInfo12current_infoEv()
  store ptr %5, ptr %2, align 8
  %6 = load ptr, ptr %2, align 8
  %7 = call noundef zeroext i1 @_ZN11FileMapInfo34remap_shared_readonly_as_readwriteEv(ptr noundef nonnull align 8 dereferenceable(40) %6)
  br i1 %7, label %9, label %8

8:                                                ; preds = %4
  store i1 false, ptr %1, align 1
  br label %20

9:                                                ; preds = %4
  %10 = call noundef ptr @_ZN11FileMapInfo12dynamic_infoEv()
  %11 = icmp ne ptr %10, null
  br i1 %11, label %12, label %18

12:                                               ; preds = %9
  %13 = call noundef ptr @_ZN11FileMapInfo12dynamic_infoEv()
  store ptr %13, ptr %2, align 8
  %14 = load ptr, ptr %2, align 8
  %15 = call noundef zeroext i1 @_ZN11FileMapInfo34remap_shared_readonly_as_readwriteEv(ptr noundef nonnull align 8 dereferenceable(40) %14)
  br i1 %15, label %17, label %16

16:                                               ; preds = %12
  store i1 false, ptr %1, align 1
  br label %20

17:                                               ; preds = %12
  br label %18

18:                                               ; preds = %17, %9
  store i8 1, ptr @_ZN15MetaspaceShared19_remapped_readwriteE, align 1
  br label %19

19:                                               ; preds = %18, %0
  store i1 true, ptr %1, align 1
  br label %20

20:                                               ; preds = %19, %16, %8
  %21 = load i1, ptr %1, align 1
  ret i1 %21
}