; Function Attrs: mustprogress nounwind uwtable
define hidden noundef zeroext i1 @_ZN15MetaspaceShared34remap_shared_readonly_as_readwriteEv() local_unnamed_addr #3 align 2 {
  %1 = tail call noundef zeroext i1 @_ZN9CDSConfig16is_using_archiveEv() #15
  br i1 %1, label %2, label %10

2:                                                ; preds = %0
  %3 = load ptr, ptr @_ZN11FileMapInfo13_current_infoE, align 8
  %4 = tail call noundef zeroext i1 @_ZN11FileMapInfo34remap_shared_readonly_as_readwriteEv(ptr noundef nonnull align 8 dereferenceable(40) %3) #15
  br i1 %4, label %5, label %10

5:                                                ; preds = %2
  %6 = load ptr, ptr @_ZN11FileMapInfo21_dynamic_archive_infoE, align 8
  %.not = icmp eq ptr %6, null
  br i1 %.not, label %9, label %7

7:                                                ; preds = %5
  %8 = tail call noundef zeroext i1 @_ZN11FileMapInfo34remap_shared_readonly_as_readwriteEv(ptr noundef nonnull align 8 dereferenceable(40) %6) #15
  br i1 %8, label %9, label %10

9:                                                ; preds = %7, %5
  store i8 1, ptr @_ZN15MetaspaceShared19_remapped_readwriteE, align 1
  br label %10

10:                                               ; preds = %0, %9, %7, %2
  %.0 = phi i1 [ false, %2 ], [ false, %7 ], [ true, %9 ], [ true, %0 ]
  ret i1 %.0
}